target datalayout = "e-m:e-p270:32:32-p271:32:32-p272:64:64-i64:64-i128:128-f80:128-n8:16:32:64-S128"
target triple = "x86_64-pc-linux-gnu"

; Function Attrs: nounwind uwtable
define i64 @SUNDlsMat_denseGETRF(ptr noundef %0, i64 noundef %1, i64 noundef %2, ptr noundef %3) #0 {
  %5 = alloca i64, align 8
  %6 = alloca ptr, align 8
  %7 = alloca i64, align 8
  %8 = alloca i64, align 8
  %9 = alloca ptr, align 8
  %10 = alloca i64, align 8
  %11 = alloca i64, align 8
  %12 = alloca i64, align 8
  %13 = alloca i64, align 8
  %14 = alloca ptr, align 8
  %15 = alloca ptr, align 8
  %16 = alloca double, align 8
  %17 = alloca double, align 8
  %18 = alloca double, align 8
  %19 = alloca i32, align 4
  store ptr %0, ptr %6, align 8, !tbaa !18
  store i64 %1, ptr %7, align 8, !tbaa !19
  store i64 %2, ptr %8, align 8, !tbaa !19
  store ptr %3, ptr %9, align 8, !tbaa !8
  call void @llvm.lifetime.start.p0(i64 8, ptr %10) #4
  call void @llvm.lifetime.start.p0(i64 8, ptr %11) #4
  call void @llvm.lifetime.start.p0(i64 8, ptr %12) #4
  call void @llvm.lifetime.start.p0(i64 8, ptr %13) #4
  call void @llvm.lifetime.start.p0(i64 8, ptr %14) #4
  call void @llvm.lifetime.start.p0(i64 8, ptr %15) #4
  call void @llvm.lifetime.start.p0(i64 8, ptr %16) #4
  call void @llvm.lifetime.start.p0(i64 8, ptr %17) #4
  call void @llvm.lifetime.start.p0(i64 8, ptr %18) #4
  store i64 0, ptr %12, align 8, !tbaa !19
  br label %20

20:                                               ; preds = %176, %4
  %21 = load i64, ptr %12, align 8, !tbaa !19
  %22 = load i64, ptr %8, align 8, !tbaa !19
  %23 = icmp slt i64 %21, %22
  br i1 %23, label %24, label %179

24:                                               ; preds = %20
  %25 = load ptr, ptr %6, align 8, !tbaa !18
  %26 = load i64, ptr %12, align 8, !tbaa !19
  %27 = getelementptr inbounds ptr, ptr %25, i64 %26
  %28 = load ptr, ptr %27, align 8, !tbaa !20
  store ptr %28, ptr %15, align 8, !tbaa !20
  %29 = load i64, ptr %12, align 8, !tbaa !19
  store i64 %29, ptr %13, align 8, !tbaa !19
  %30 = load i64, ptr %12, align 8, !tbaa !19
  %31 = add nsw i64 %30, 1
  store i64 %31, ptr %10, align 8, !tbaa !19
  br label %32

32:                                               ; preds = %51, %24
  %33 = load i64, ptr %10, align 8, !tbaa !19
  %34 = load i64, ptr %7, align 8, !tbaa !19
  %35 = icmp slt i64 %33, %34
  br i1 %35, label %36, label %54

36:                                               ; preds = %32
  %37 = load ptr, ptr %15, align 8, !tbaa !20
  %38 = load i64, ptr %10, align 8, !tbaa !19
  %39 = getelementptr inbounds double, ptr %37, i64 %38
  %40 = load double, ptr %39, align 8, !tbaa !21
  %41 = call double @llvm.fabs.f64(double %40)
  %42 = load ptr, ptr %15, align 8, !tbaa !20
  %43 = load i64, ptr %13, align 8, !tbaa !19
  %44 = getelementptr inbounds double, ptr %42, i64 %43
  %45 = load double, ptr %44, align 8, !tbaa !21
  %46 = call double @llvm.fabs.f64(double %45)
  %47 = fcmp ogt double %41, %46
  br i1 %47, label %48, label %50

48:                                               ; preds = %36
  %49 = load i64, ptr %10, align 8, !tbaa !19
  store i64 %49, ptr %13, align 8, !tbaa !19
  br label %50

50:                                               ; preds = %48, %36
  br label %51

51:                                               ; preds = %50
  %52 = load i64, ptr %10, align 8, !tbaa !19
  %53 = add nsw i64 %52, 1
  store i64 %53, ptr %10, align 8, !tbaa !19
  br label %32

54:                                               ; preds = %32
  %55 = load i64, ptr %13, align 8, !tbaa !19
  %56 = load ptr, ptr %9, align 8, !tbaa !8
  %57 = load i64, ptr %12, align 8, !tbaa !19
  %58 = getelementptr inbounds i64, ptr %56, i64 %57
  store i64 %55, ptr %58, align 8, !tbaa !19
  %59 = load ptr, ptr %15, align 8, !tbaa !20
  %60 = load i64, ptr %13, align 8, !tbaa !19
  %61 = getelementptr inbounds double, ptr %59, i64 %60
  %62 = load double, ptr %61, align 8, !tbaa !21
  %63 = fcmp oeq double %62, 0.000000e+00
  br i1 %63, label %64, label %67

64:                                               ; preds = %54
  %65 = load i64, ptr %12, align 8, !tbaa !19
  %66 = add nsw i64 %65, 1
  store i64 %66, ptr %5, align 8
  store i32 1, ptr %19, align 4
  br label %180

67:                                               ; preds = %54
  %68 = load i64, ptr %13, align 8, !tbaa !19
  %69 = load i64, ptr %12, align 8, !tbaa !19
  %70 = icmp ne i64 %68, %69
  br i1 %70, label %71, label %108

71:                                               ; preds = %67
  store i64 0, ptr %10, align 8, !tbaa !19
  br label %72

72:                                               ; preds = %104, %71
  %73 = load i64, ptr %10, align 8, !tbaa !19
  %74 = load i64, ptr %8, align 8, !tbaa !19
  %75 = icmp slt i64 %73, %74
  br i1 %75, label %76, label %107

76:                                               ; preds = %72
  %77 = load ptr, ptr %6, align 8, !tbaa !18
  %78 = load i64, ptr %10, align 8, !tbaa !19
  %79 = getelementptr inbounds ptr, ptr %77, i64 %78
  %80 = load ptr, ptr %79, align 8, !tbaa !20
  %81 = load i64, ptr %13, align 8, !tbaa !19
  %82 = getelementptr inbounds double, ptr %80, i64 %81
  %83 = load double, ptr %82, align 8, !tbaa !21
  store double %83, ptr %16, align 8, !tbaa !21
  %84 = load ptr, ptr %6, align 8, !tbaa !18
  %85 = load i64, ptr %10, align 8, !tbaa !19
  %86 = getelementptr inbounds ptr, ptr %84, i64 %85
  %87 = load ptr, ptr %86, align 8, !tbaa !20
  %88 = load i64, ptr %12, align 8, !tbaa !19
  %89 = getelementptr inbounds double, ptr %87, i64 %88
  %90 = load double, ptr %89, align 8, !tbaa !21
  %91 = load ptr, ptr %6, align 8, !tbaa !18
  %92 = load i64, ptr %10, align 8, !tbaa !19
  %93 = getelementptr inbounds ptr, ptr %91, i64 %92
  %94 = load ptr, ptr %93, align 8, !tbaa !20
  %95 = load i64, ptr %13, align 8, !tbaa !19
  %96 = getelementptr inbounds double, ptr %94, i64 %95
  store double %90, ptr %96, align 8, !tbaa !21
  %97 = load double, ptr %16, align 8, !tbaa !21
  %98 = load ptr, ptr %6, align 8, !tbaa !18
  %99 = load i64, ptr %10, align 8, !tbaa !19
  %100 = getelementptr inbounds ptr, ptr %98, i64 %99
  %101 = load ptr, ptr %100, align 8, !tbaa !20
  %102 = load i64, ptr %12, align 8, !tbaa !19
  %103 = getelementptr inbounds double, ptr %101, i64 %102
  store double %97, ptr %103, align 8, !tbaa !21
  br label %104

104:                                              ; preds = %76
  %105 = load i64, ptr %10, align 8, !tbaa !19
  %106 = add nsw i64 %105, 1
  store i64 %106, ptr %10, align 8, !tbaa !19
  br label %72

107:                                              ; preds = %72
  br label %108

108:                                              ; preds = %107, %67
  %109 = load ptr, ptr %15, align 8, !tbaa !20
  %110 = load i64, ptr %12, align 8, !tbaa !19
  %111 = getelementptr inbounds double, ptr %109, i64 %110
  %112 = load double, ptr %111, align 8, !tbaa !21
  %113 = fdiv double 1.000000e+00, %112
  store double %113, ptr %17, align 8, !tbaa !21
  %114 = load i64, ptr %12, align 8, !tbaa !19
  %115 = add nsw i64 %114, 1
  store i64 %115, ptr %10, align 8, !tbaa !19
  br label %116

116:                                              ; preds = %127, %108
  %117 = load i64, ptr %10, align 8, !tbaa !19
  %118 = load i64, ptr %7, align 8, !tbaa !19
  %119 = icmp slt i64 %117, %118
  br i1 %119, label %120, label %130

120:                                              ; preds = %116
  %121 = load double, ptr %17, align 8, !tbaa !21
  %122 = load ptr, ptr %15, align 8, !tbaa !20
  %123 = load i64, ptr %10, align 8, !tbaa !19
  %124 = getelementptr inbounds double, ptr %122, i64 %123
  %125 = load double, ptr %124, align 8, !tbaa !21
  %126 = fmul double %125, %121
  store double %126, ptr %124, align 8, !tbaa !21
  br label %127

127:                                              ; preds = %120
  %128 = load i64, ptr %10, align 8, !tbaa !19
  %129 = add nsw i64 %128, 1
  store i64 %129, ptr %10, align 8, !tbaa !19
  br label %116

130:                                              ; preds = %116
  %131 = load i64, ptr %12, align 8, !tbaa !19
  %132 = add nsw i64 %131, 1
  store i64 %132, ptr %11, align 8, !tbaa !19
  br label %133

133:                                              ; preds = %172, %130
  %134 = load i64, ptr %11, align 8, !tbaa !19
  %135 = load i64, ptr %8, align 8, !tbaa !19
  %136 = icmp slt i64 %134, %135
  br i1 %136, label %137, label %175

137:                                              ; preds = %133
  %138 = load ptr, ptr %6, align 8, !tbaa !18
  %139 = load i64, ptr %11, align 8, !tbaa !19
  %140 = getelementptr inbounds ptr, ptr %138, i64 %139
  %141 = load ptr, ptr %140, align 8, !tbaa !20
  store ptr %141, ptr %14, align 8, !tbaa !20
  %142 = load ptr, ptr %14, align 8, !tbaa !20
  %143 = load i64, ptr %12, align 8, !tbaa !19
  %144 = getelementptr inbounds double, ptr %142, i64 %143
  %145 = load double, ptr %144, align 8, !tbaa !21
  store double %145, ptr %18, align 8, !tbaa !21
  %146 = load double, ptr %18, align 8, !tbaa !21
  %147 = fcmp une double %146, 0.000000e+00
  br i1 %147, label %148, label %171

148:                                              ; preds = %137
  %149 = load i64, ptr %12, align 8, !tbaa !19
  %150 = add nsw i64 %149, 1
  store i64 %150, ptr %10, align 8, !tbaa !19
  br label %151

151:                                              ; preds = %167, %148
  %152 = load i64, ptr %10, align 8, !tbaa !19
  %153 = load i64, ptr %7, align 8, !tbaa !19
  %154 = icmp slt i64 %152, %153
  br i1 %154, label %155, label %170

155:                                              ; preds = %151
  %156 = load double, ptr %18, align 8, !tbaa !21
  %157 = load ptr, ptr %15, align 8, !tbaa !20
  %158 = load i64, ptr %10, align 8, !tbaa !19
  %159 = getelementptr inbounds double, ptr %157, i64 %158
  %160 = load double, ptr %159, align 8, !tbaa !21
  %161 = load ptr, ptr %14, align 8, !tbaa !20
  %162 = load i64, ptr %10, align 8, !tbaa !19
  %163 = getelementptr inbounds double, ptr %161, i64 %162
  %164 = load double, ptr %163, align 8, !tbaa !21
  %165 = fneg double %156
  %166 = call double @llvm.fmuladd.f64(double %165, double %160, double %164)
  store double %166, ptr %163, align 8, !tbaa !21
  br label %167

167:                                              ; preds = %155
  %168 = load i64, ptr %10, align 8, !tbaa !19
  %169 = add nsw i64 %168, 1
  store i64 %169, ptr %10, align 8, !tbaa !19
  br label %151

170:                                              ; preds = %151
  br label %171

171:                                              ; preds = %170, %137
  br label %172

172:                                              ; preds = %171
  %173 = load i64, ptr %11, align 8, !tbaa !19
  %174 = add nsw i64 %173, 1
  store i64 %174, ptr %11, align 8, !tbaa !19
  br label %133

175:                                              ; preds = %133
  br label %176

176:                                              ; preds = %175
  %177 = load i64, ptr %12, align 8, !tbaa !19
  %178 = add nsw i64 %177, 1
  store i64 %178, ptr %12, align 8, !tbaa !19
  br label %20

179:                                              ; preds = %20
  store i64 0, ptr %5, align 8
  store i32 1, ptr %19, align 4
  br label %180

180:                                              ; preds = %179, %64
  call void @llvm.lifetime.end.p0(i64 8, ptr %18) #4
  call void @llvm.lifetime.end.p0(i64 8, ptr %17) #4
  call void @llvm.lifetime.end.p0(i64 8, ptr %16) #4
  call void @llvm.lifetime.end.p0(i64 8, ptr %15) #4
  call void @llvm.lifetime.end.p0(i64 8, ptr %14) #4
  call void @llvm.lifetime.end.p0(i64 8, ptr %13) #4
  call void @llvm.lifetime.end.p0(i64 8, ptr %12) #4
  call void @llvm.lifetime.end.p0(i64 8, ptr %11) #4
  call void @llvm.lifetime.end.p0(i64 8, ptr %10) #4
  %181 = load i64, ptr %5, align 8
  ret i64 %181
}