; Function Attrs: nofree norecurse nosync nounwind memory(readwrite, inaccessiblemem: none) uwtable
define i64 @SUNDlsMat_denseGETRF(ptr noundef readonly captures(none) %0, i64 noundef %1, i64 noundef %2, ptr noundef writeonly captures(none) %3) local_unnamed_addr #0 {
  %5 = icmp sgt i64 %2, 0
  br i1 %5, label %.lr.ph91, label %._crit_edge92

.loopexit75:                                      ; preds = %..loopexit_crit_edge.us, %.preheader74, %.loopexit77
  %exitcond103.not = icmp eq i64 %8, %2
  br i1 %exitcond103.not, label %._crit_edge92, label %.lr.ph91

.lr.ph91:                                         ; preds = %4, %.loopexit75
  %.06889 = phi i64 [ %8, %.loopexit75 ], [ 0, %4 ]
  %6 = getelementptr inbounds nuw ptr, ptr %0, i64 %.06889
  %7 = load ptr, ptr %6, align 8, !tbaa !14
  %8 = add nuw nsw i64 %.06889, 1
  %9 = icmp slt i64 %8, %1
  br i1 %9, label %.lr.ph, label %._crit_edge

.lr.ph:                                           ; preds = %.lr.ph91, %.lr.ph
  %.06679 = phi i64 [ %17, %.lr.ph ], [ %8, %.lr.ph91 ]
  %.06978 = phi i64 [ %.170, %.lr.ph ], [ %.06889, %.lr.ph91 ]
  %10 = getelementptr inbounds nuw double, ptr %7, i64 %.06679
  %11 = load double, ptr %10, align 8, !tbaa !15
  %12 = tail call double @llvm.fabs.f64(double %11)
  %13 = getelementptr inbounds double, ptr %7, i64 %.06978
  %14 = load double, ptr %13, align 8, !tbaa !15
  %15 = tail call double @llvm.fabs.f64(double %14)
  %16 = fcmp ogt double %12, %15
  %.170 = select i1 %16, i64 %.06679, i64 %.06978
  %17 = add nuw nsw i64 %.06679, 1
  %exitcond.not = icmp eq i64 %17, %1
  br i1 %exitcond.not, label %._crit_edge, label %.lr.ph

._crit_edge:                                      ; preds = %.lr.ph, %.lr.ph91
  %.069.lcssa = phi i64 [ %.06889, %.lr.ph91 ], [ %.170, %.lr.ph ]
  %18 = getelementptr inbounds nuw i64, ptr %3, i64 %.06889
  store i64 %.069.lcssa, ptr %18, align 8, !tbaa !17
  %19 = getelementptr inbounds double, ptr %7, i64 %.069.lcssa
  %20 = load double, ptr %19, align 8, !tbaa !15
  %21 = fcmp oeq double %20, 0.000000e+00
  br i1 %21, label %._crit_edge92, label %22

22:                                               ; preds = %._crit_edge
  %.not = icmp eq i64 %.069.lcssa, %.06889
  br i1 %.not, label %.loopexit77, label %.lr.ph81

.lr.ph81:                                         ; preds = %22, %.lr.ph81
  %.180 = phi i64 [ %29, %.lr.ph81 ], [ 0, %22 ]
  %23 = getelementptr inbounds nuw ptr, ptr %0, i64 %.180
  %24 = load ptr, ptr %23, align 8, !tbaa !14
  %25 = getelementptr inbounds double, ptr %24, i64 %.069.lcssa
  %26 = load double, ptr %25, align 8, !tbaa !15
  %27 = getelementptr inbounds nuw double, ptr %24, i64 %.06889
  %28 = load double, ptr %27, align 8, !tbaa !15
  store double %28, ptr %25, align 8, !tbaa !15
  store double %26, ptr %27, align 8, !tbaa !15
  %29 = add nuw nsw i64 %.180, 1
  %exitcond99.not = icmp eq i64 %29, %2
  br i1 %exitcond99.not, label %.loopexit77, label %.lr.ph81

.loopexit77:                                      ; preds = %.lr.ph81, %22
  %30 = getelementptr inbounds nuw double, ptr %7, i64 %.06889
  %31 = load double, ptr %30, align 8, !tbaa !15
  %32 = fdiv double 1.000000e+00, %31
  br i1 %9, label %.lr.ph84, label %.loopexit75

.preheader74:                                     ; preds = %.lr.ph84
  %.not106 = icmp slt i64 %8, %2
  br i1 %.not106, label %.lr.ph88.split.us, label %.loopexit75

.lr.ph88.split.us:                                ; preds = %.preheader74, %..loopexit_crit_edge.us
  %.06787.us = phi i64 [ %38, %..loopexit_crit_edge.us ], [ %8, %.preheader74 ]
  %33 = getelementptr inbounds nuw ptr, ptr %0, i64 %.06787.us
  %34 = load ptr, ptr %33, align 8, !tbaa !14
  %35 = getelementptr inbounds nuw double, ptr %34, i64 %.06889
  %36 = load double, ptr %35, align 8, !tbaa !15
  %37 = fcmp une double %36, 0.000000e+00
  br i1 %37, label %.preheader.us, label %..loopexit_crit_edge.us

..loopexit_crit_edge.us:                          ; preds = %39, %.lr.ph88.split.us
  %38 = add nuw nsw i64 %.06787.us, 1
  %exitcond102.not = icmp eq i64 %38, %2
  br i1 %exitcond102.not, label %.loopexit75, label %.lr.ph88.split.us

39:                                               ; preds = %.preheader.us, %39
  %.385.us = phi i64 [ %8, %.preheader.us ], [ %45, %39 ]
  %40 = getelementptr inbounds nuw double, ptr %7, i64 %.385.us
  %41 = load double, ptr %40, align 8, !tbaa !15
  %42 = getelementptr inbounds nuw double, ptr %34, i64 %.385.us
  %43 = load double, ptr %42, align 8, !tbaa !15
  %44 = tail call double @llvm.fmuladd.f64(double %46, double %41, double %43)
  store double %44, ptr %42, align 8, !tbaa !15
  %45 = add nuw nsw i64 %.385.us, 1
  %exitcond101.not = icmp eq i64 %45, %1
  br i1 %exitcond101.not, label %..loopexit_crit_edge.us, label %39

.preheader.us:                                    ; preds = %.lr.ph88.split.us
  %46 = fneg double %36
  br label %39

.lr.ph84:                                         ; preds = %.loopexit77, %.lr.ph84
  %.282 = phi i64 [ %50, %.lr.ph84 ], [ %8, %.loopexit77 ]
  %47 = getelementptr inbounds nuw double, ptr %7, i64 %.282
  %48 = load double, ptr %47, align 8, !tbaa !15
  %49 = fmul double %32, %48
  store double %49, ptr %47, align 8, !tbaa !15
  %50 = add nuw nsw i64 %.282, 1
  %exitcond100.not = icmp eq i64 %50, %1
  br i1 %exitcond100.not, label %.preheader74, label %.lr.ph84

._crit_edge92:                                    ; preds = %._crit_edge, %.loopexit75, %4
  %.0 = phi i64 [ 0, %4 ], [ 0, %.loopexit75 ], [ %8, %._crit_edge ]
  ret i64 %.0
}